target datalayout = "e-m:e-p270:32:32-p271:32:32-p272:64:64-i64:64-i128:128-f80:128-n8:16:32:64-S128"
target triple = "x86_64-unknown-linux-gnu"

%"struct.struct_pb::UnknownFields" = type { %"class.std::vector" }
%"class.std::vector" = type { %"struct.std::_Vector_base" }
%"struct.std::_Vector_base" = type { %"struct.std::_Vector_base<struct_pb::UnknownFields::Field, std::allocator<struct_pb::UnknownFields::Field>>::_Vector_impl" }
%"struct.std::_Vector_base<struct_pb::UnknownFields::Field, std::allocator<struct_pb::UnknownFields::Field>>::_Vector_impl" = type { %"struct.std::_Vector_base<struct_pb::UnknownFields::Field, std::allocator<struct_pb::UnknownFields::Field>>::_Vector_impl_data" }
%"struct.std::_Vector_base<struct_pb::UnknownFields::Field, std::allocator<struct_pb::UnknownFields::Field>>::_Vector_impl_data" = type { ptr, ptr, ptr }
%"class.__gnu_cxx::__normal_iterator.465" = type { ptr }
%"struct.struct_pb::UnknownFields::Field" = type { ptr, i64 }
%"struct.protobuf_test_messages::proto3::ForeignMessage" = type { i32 }

; Function Attrs: mustprogress nounwind uwtable
define linkonce_odr dso_local noundef nonnull align 8 dereferenceable(8) ptr @_ZNK9__gnu_cxx17__normal_iteratorIPKN9struct_pb13UnknownFields5FieldESt6vectorIS3_SaIS3_EEE4baseEv(ptr noundef nonnull align 8 dereferenceable(8) %this) #1 comdat align 2 {
entry:
  %this.addr = alloca ptr, align 8
  store ptr %this, ptr %this.addr, align 8
  %this1 = load ptr, ptr %this.addr, align 8
  %_M_current = getelementptr inbounds %"class.__gnu_cxx::__normal_iterator.465", ptr %this1, i32 0, i32 0
  ret ptr %_M_current
}

; Function Attrs: mustprogress nounwind uwtable
define linkonce_odr dso_local void @_ZN9__gnu_cxx17__normal_iteratorIPKN9struct_pb13UnknownFields5FieldESt6vectorIS3_SaIS3_EEEC2ERKS5_(ptr noundef nonnull align 8 dereferenceable(8) %this, ptr noundef nonnull align 8 dereferenceable(8) %__i) unnamed_addr #1 comdat align 2 {
entry:
  %this.addr = alloca ptr, align 8
  %__i.addr = alloca ptr, align 8
  store ptr %this, ptr %this.addr, align 8
  store ptr %__i, ptr %__i.addr, align 8
  %this1 = load ptr, ptr %this.addr, align 8
  %_M_current = getelementptr inbounds %"class.__gnu_cxx::__normal_iterator.465", ptr %this1, i32 0, i32 0
  %0 = load ptr, ptr %__i.addr, align 8
  %1 = load ptr, ptr %0, align 8
  store ptr %1, ptr %_M_current, align 8
  ret void
}

; Function Attrs: mustprogress nounwind uwtable
define linkonce_odr dso_local noundef nonnull align 8 dereferenceable(8) ptr @_ZN9__gnu_cxx17__normal_iteratorIPKN9struct_pb13UnknownFields5FieldESt6vectorIS3_SaIS3_EEEppEv(ptr noundef nonnull align 8 dereferenceable(8) %this) #1 comdat align 2 {
entry:
  %this.addr = alloca ptr, align 8
  store ptr %this, ptr %this.addr, align 8
  %this1 = load ptr, ptr %this.addr, align 8
  %_M_current = getelementptr inbounds %"class.__gnu_cxx::__normal_iterator.465", ptr %this1, i32 0, i32 0
  %0 = load ptr, ptr %_M_current, align 8
  %incdec.ptr = getelementptr inbounds %"struct.struct_pb::UnknownFields::Field", ptr %0, i32 1
  store ptr %incdec.ptr, ptr %_M_current, align 8
  ret ptr %this1
}

; Function Attrs: mustprogress nounwind uwtable
define linkonce_odr dso_local noundef nonnull align 8 dereferenceable(16) ptr @_ZNK9__gnu_cxx17__normal_iteratorIPKN9struct_pb13UnknownFields5FieldESt6vectorIS3_SaIS3_EEEdeEv(ptr noundef nonnull align 8 dereferenceable(8) %this) #1 comdat align 2 {
entry:
  %this.addr = alloca ptr, align 8
  store ptr %this, ptr %this.addr, align 8
  %this1 = load ptr, ptr %this.addr, align 8
  %_M_current = getelementptr inbounds %"class.__gnu_cxx::__normal_iterator.465", ptr %this1, i32 0, i32 0
  %0 = load ptr, ptr %_M_current, align 8
  ret ptr %0
}

; Function Attrs: mustprogress nounwind uwtable
define linkonce_odr dso_local noundef zeroext i1 @_ZN9__gnu_cxxeqIPKN9struct_pb13UnknownFields5FieldESt6vectorIS3_SaIS3_EEEEbRKNS_17__normal_iteratorIT_T0_EESE_QrqXeqcldtfp_4baseEcldtfp0_4baseERSt14convertible_toIbEE(ptr noundef nonnull align 8 dereferenceable(8) %__lhs, ptr noundef nonnull align 8 dereferenceable(8) %__rhs) #1 comdat {
entry:
  %__lhs.addr = alloca ptr, align 8
  %__rhs.addr = alloca ptr, align 8
  store ptr %__lhs, ptr %__lhs.addr, align 8
  store ptr %__rhs, ptr %__rhs.addr, align 8
  %0 = load ptr, ptr %__lhs.addr, align 8
  %call = call noundef nonnull align 8 dereferenceable(8) ptr @_ZNK9__gnu_cxx17__normal_iteratorIPKN9struct_pb13UnknownFields5FieldESt6vectorIS3_SaIS3_EEE4baseEv(ptr noundef nonnull align 8 dereferenceable(8) %0) #11
  %1 = load ptr, ptr %call, align 8
  %2 = load ptr, ptr %__rhs.addr, align 8
  %call1 = call noundef nonnull align 8 dereferenceable(8) ptr @_ZNK9__gnu_cxx17__normal_iteratorIPKN9struct_pb13UnknownFields5FieldESt6vectorIS3_SaIS3_EEE4baseEv(ptr noundef nonnull align 8 dereferenceable(8) %2) #11
  %3 = load ptr, ptr %call1, align 8
  %cmp = icmp eq ptr %1, %3
  ret i1 %cmp
}

; Function Attrs: mustprogress nounwind uwtable
define linkonce_odr dso_local ptr @_ZNKSt6vectorIN9struct_pb13UnknownFields5FieldESaIS2_EE3endEv(ptr noundef nonnull align 8 dereferenceable(24) %this) #1 comdat align 2 {
entry:
  %retval = alloca %"class.__gnu_cxx::__normal_iterator.465", align 8
  %this.addr = alloca ptr, align 8
  store ptr %this, ptr %this.addr, align 8
  %this1 = load ptr, ptr %this.addr, align 8
  %_M_impl = getelementptr inbounds %"struct.std::_Vector_base", ptr %this1, i32 0, i32 0
  %_M_finish = getelementptr inbounds %"struct.std::_Vector_base<struct_pb::UnknownFields::Field, std::allocator<struct_pb::UnknownFields::Field>>::_Vector_impl_data", ptr %_M_impl, i32 0, i32 1
  call void @_ZN9__gnu_cxx17__normal_iteratorIPKN9struct_pb13UnknownFields5FieldESt6vectorIS3_SaIS3_EEEC2ERKS5_(ptr noundef nonnull align 8 dereferenceable(8) %retval, ptr noundef nonnull align 8 dereferenceable(8) %_M_finish) #11
  %coerce.dive = getelementptr inbounds %"class.__gnu_cxx::__normal_iterator.465", ptr %retval, i32 0, i32 0
  %0 = load ptr, ptr %coerce.dive, align 8
  ret ptr %0
}

; Function Attrs: mustprogress nounwind uwtable
define linkonce_odr dso_local ptr @_ZNKSt6vectorIN9struct_pb13UnknownFields5FieldESaIS2_EE5beginEv(ptr noundef nonnull align 8 dereferenceable(24) %this) #1 comdat align 2 {
entry:
  %retval = alloca %"class.__gnu_cxx::__normal_iterator.465", align 8
  %this.addr = alloca ptr, align 8
  store ptr %this, ptr %this.addr, align 8
  %this1 = load ptr, ptr %this.addr, align 8
  %_M_impl = getelementptr inbounds %"struct.std::_Vector_base", ptr %this1, i32 0, i32 0
  %_M_start = getelementptr inbounds %"struct.std::_Vector_base<struct_pb::UnknownFields::Field, std::allocator<struct_pb::UnknownFields::Field>>::_Vector_impl_data", ptr %_M_impl, i32 0, i32 0
  call void @_ZN9__gnu_cxx17__normal_iteratorIPKN9struct_pb13UnknownFields5FieldESt6vectorIS3_SaIS3_EEEC2ERKS5_(ptr noundef nonnull align 8 dereferenceable(8) %retval, ptr noundef nonnull align 8 dereferenceable(8) %_M_start) #11
  %coerce.dive = getelementptr inbounds %"class.__gnu_cxx::__normal_iterator.465", ptr %retval, i32 0, i32 0
  %0 = load ptr, ptr %coerce.dive, align 8
  ret ptr %0
}

; Function Attrs: mustprogress nounwind uwtable
define linkonce_odr dso_local void @_ZNK9struct_pb13UnknownFields12serialize_toEPcRmm(ptr noundef nonnull align 8 dereferenceable(24) %this, ptr noundef %data, ptr noundef nonnull align 8 dereferenceable(8) %pos, i64 noundef %size) #1 comdat align 2 {
entry:
  %this.addr = alloca ptr, align 8
  %data.addr = alloca ptr, align 8
  %pos.addr = alloca ptr, align 8
  %size.addr = alloca i64, align 8
  %__range2 = alloca ptr, align 8
  %__begin2 = alloca %"class.__gnu_cxx::__normal_iterator.465", align 8
  %__end2 = alloca %"class.__gnu_cxx::__normal_iterator.465", align 8
  %f = alloca ptr, align 8
  store ptr %this, ptr %this.addr, align 8
  store ptr %data, ptr %data.addr, align 8
  store ptr %pos, ptr %pos.addr, align 8
  store i64 %size, ptr %size.addr, align 8
  %this1 = load ptr, ptr %this.addr, align 8
  %fields = getelementptr inbounds %"struct.struct_pb::UnknownFields", ptr %this1, i32 0, i32 0
  store ptr %fields, ptr %__range2, align 8
  %0 = load ptr, ptr %__range2, align 8
  %call = call ptr @_ZNKSt6vectorIN9struct_pb13UnknownFields5FieldESaIS2_EE5beginEv(ptr noundef nonnull align 8 dereferenceable(24) %0) #11
  %coerce.dive = getelementptr inbounds %"class.__gnu_cxx::__normal_iterator.465", ptr %__begin2, i32 0, i32 0
  store ptr %call, ptr %coerce.dive, align 8
  %1 = load ptr, ptr %__range2, align 8
  %call2 = call ptr @_ZNKSt6vectorIN9struct_pb13UnknownFields5FieldESaIS2_EE3endEv(ptr noundef nonnull align 8 dereferenceable(24) %1) #11
  %coerce.dive3 = getelementptr inbounds %"class.__gnu_cxx::__normal_iterator.465", ptr %__end2, i32 0, i32 0
  store ptr %call2, ptr %coerce.dive3, align 8
  br label %for.cond

for.cond:                                         ; preds = %for.inc, %entry
  %call4 = call noundef zeroext i1 @_ZN9__gnu_cxxeqIPKN9struct_pb13UnknownFields5FieldESt6vectorIS3_SaIS3_EEEEbRKNS_17__normal_iteratorIT_T0_EESE_QrqXeqcldtfp_4baseEcldtfp0_4baseERSt14convertible_toIbEE(ptr noundef nonnull align 8 dereferenceable(8) %__begin2, ptr noundef nonnull align 8 dereferenceable(8) %__end2) #11
  %lnot = xor i1 %call4, true
  br i1 %lnot, label %for.body, label %for.end

for.body:                                         ; preds = %for.cond
  %call5 = call noundef nonnull align 8 dereferenceable(16) ptr @_ZNK9__gnu_cxx17__normal_iteratorIPKN9struct_pb13UnknownFields5FieldESt6vectorIS3_SaIS3_EEEdeEv(ptr noundef nonnull align 8 dereferenceable(8) %__begin2) #11
  store ptr %call5, ptr %f, align 8
  %2 = load ptr, ptr %data.addr, align 8
  %3 = load ptr, ptr %pos.addr, align 8
  %4 = load i64, ptr %3, align 8
  %add.ptr = getelementptr inbounds i8, ptr %2, i64 %4
  %5 = load ptr, ptr %f, align 8
  %data6 = getelementptr inbounds %"struct.struct_pb::UnknownFields::Field", ptr %5, i32 0, i32 0
  %6 = load ptr, ptr %data6, align 8
  %7 = load ptr, ptr %f, align 8
  %len = getelementptr inbounds %"struct.struct_pb::UnknownFields::Field", ptr %7, i32 0, i32 1
  %8 = load i64, ptr %len, align 8
  call void @llvm.memcpy.p0.p0.i64(ptr align 1 %add.ptr, ptr align 1 %6, i64 %8, i1 false)
  %9 = load ptr, ptr %f, align 8
  %len7 = getelementptr inbounds %"struct.struct_pb::UnknownFields::Field", ptr %9, i32 0, i32 1
  %10 = load i64, ptr %len7, align 8
  %11 = load ptr, ptr %pos.addr, align 8
  %12 = load i64, ptr %11, align 8
  %add = add i64 %12, %10
  store i64 %add, ptr %11, align 8
  br label %for.inc

for.inc:                                          ; preds = %for.body
  %call8 = call noundef nonnull align 8 dereferenceable(8) ptr @_ZN9__gnu_cxx17__normal_iteratorIPKN9struct_pb13UnknownFields5FieldESt6vectorIS3_SaIS3_EEEppEv(ptr noundef nonnull align 8 dereferenceable(8) %__begin2) #11
  br label %for.cond

for.end:                                          ; preds = %for.cond
  ret void
}

; Function Attrs: mustprogress uwtable
define dso_local void @_ZN9struct_pb8internal12serialize_toIN22protobuf_test_messages6proto314ForeignMessageEEEvPcmRKT_RKNS_13UnknownFieldsE(ptr noundef %data, i64 noundef %size, ptr noundef nonnull align 4 dereferenceable(4) %t, ptr noundef nonnull align 8 dereferenceable(24) %unknown_fields) #0 {
entry:
  %data.addr.i2 = alloca ptr, align 8
  %pos.addr.i3 = alloca ptr, align 8
  %size.addr.i4 = alloca i64, align 8
  %v.addr.i5 = alloca i64, align 8
  %data.addr.i = alloca ptr, align 8
  %pos.addr.i = alloca ptr, align 8
  %size.addr.i = alloca i64, align 8
  %v.addr.i = alloca i64, align 8
  %data.addr = alloca ptr, align 8
  %size.addr = alloca i64, align 8
  %t.addr = alloca ptr, align 8
  %unknown_fields.addr = alloca ptr, align 8
  %pos = alloca i64, align 8
  store ptr %data, ptr %data.addr, align 8
  store i64 %size, ptr %size.addr, align 8
  store ptr %t, ptr %t.addr, align 8
  store ptr %unknown_fields, ptr %unknown_fields.addr, align 8
  store i64 0, ptr %pos, align 8
  %0 = load ptr, ptr %t.addr, align 8
  %c = getelementptr inbounds %"struct.protobuf_test_messages::proto3::ForeignMessage", ptr %0, i32 0, i32 0
  %1 = load i32, ptr %c, align 4
  %cmp = icmp ne i32 %1, 0
  br i1 %cmp, label %if.then, label %if.end

if.then:                                          ; preds = %entry
  %2 = load ptr, ptr %data.addr, align 8
  %3 = load i64, ptr %size.addr, align 8
  store ptr %2, ptr %data.addr.i2, align 8
  store ptr %pos, ptr %pos.addr.i3, align 8
  store i64 %3, ptr %size.addr.i4, align 8
  store i64 8, ptr %v.addr.i5, align 8
  br label %while.cond.i6

while.cond.i6:                                    ; preds = %while.body.i11, %if.then
  %4 = load i64, ptr %v.addr.i5, align 8
  %cmp.i7 = icmp uge i64 %4, 128
  br i1 %cmp.i7, label %while.body.i11, label %_ZN9struct_pb8internal16serialize_varintEPcRmmm.exit17

while.body.i11:                                   ; preds = %while.cond.i6
  %5 = load i64, ptr %v.addr.i5, align 8
  %or.i12 = or i64 %5, 128
  %conv.i13 = trunc i64 %or.i12 to i8
  %6 = load ptr, ptr %data.addr.i2, align 8
  %7 = load ptr, ptr %pos.addr.i3, align 8
  %8 = load i64, ptr %7, align 8
  %inc.i14 = add i64 %8, 1
  store i64 %inc.i14, ptr %7, align 8
  %arrayidx.i15 = getelementptr inbounds i8, ptr %6, i64 %8
  store i8 %conv.i13, ptr %arrayidx.i15, align 1
  %9 = load i64, ptr %v.addr.i5, align 8
  %shr.i16 = lshr i64 %9, 7
  store i64 %shr.i16, ptr %v.addr.i5, align 8
  br label %while.cond.i6, !llvm.loop !7

_ZN9struct_pb8internal16serialize_varintEPcRmmm.exit17: ; preds = %while.cond.i6
  %10 = load i64, ptr %v.addr.i5, align 8
  %conv1.i8 = trunc i64 %10 to i8
  %11 = load ptr, ptr %data.addr.i2, align 8
  %12 = load ptr, ptr %pos.addr.i3, align 8
  %13 = load i64, ptr %12, align 8
  %inc2.i9 = add i64 %13, 1
  store i64 %inc2.i9, ptr %12, align 8
  %arrayidx3.i10 = getelementptr inbounds i8, ptr %11, i64 %13
  store i8 %conv1.i8, ptr %arrayidx3.i10, align 1
  %14 = load ptr, ptr %data.addr, align 8
  %15 = load i64, ptr %size.addr, align 8
  %16 = load ptr, ptr %t.addr, align 8
  %c1 = getelementptr inbounds %"struct.protobuf_test_messages::proto3::ForeignMessage", ptr %16, i32 0, i32 0
  %17 = load i32, ptr %c1, align 4
  %conv = sext i32 %17 to i64
  store ptr %14, ptr %data.addr.i, align 8
  store ptr %pos, ptr %pos.addr.i, align 8
  store i64 %15, ptr %size.addr.i, align 8
  store i64 %conv, ptr %v.addr.i, align 8
  br label %while.cond.i

while.cond.i:                                     ; preds = %while.body.i, %_ZN9struct_pb8internal16serialize_varintEPcRmmm.exit17
  %18 = load i64, ptr %v.addr.i, align 8
  %cmp.i = icmp uge i64 %18, 128
  br i1 %cmp.i, label %while.body.i, label %_ZN9struct_pb8internal16serialize_varintEPcRmmm.exit

while.body.i:                                     ; preds = %while.cond.i
  %19 = load i64, ptr %v.addr.i, align 8
  %or.i = or i64 %19, 128
  %conv.i = trunc i64 %or.i to i8
  %20 = load ptr, ptr %data.addr.i, align 8
  %21 = load ptr, ptr %pos.addr.i, align 8
  %22 = load i64, ptr %21, align 8
  %inc.i = add i64 %22, 1
  store i64 %inc.i, ptr %21, align 8
  %arrayidx.i = getelementptr inbounds i8, ptr %20, i64 %22
  store i8 %conv.i, ptr %arrayidx.i, align 1
  %23 = load i64, ptr %v.addr.i, align 8
  %shr.i = lshr i64 %23, 7
  store i64 %shr.i, ptr %v.addr.i, align 8
  br label %while.cond.i, !llvm.loop !7

_ZN9struct_pb8internal16serialize_varintEPcRmmm.exit: ; preds = %while.cond.i
  %24 = load i64, ptr %v.addr.i, align 8
  %conv1.i = trunc i64 %24 to i8
  %25 = load ptr, ptr %data.addr.i, align 8
  %26 = load ptr, ptr %pos.addr.i, align 8
  %27 = load i64, ptr %26, align 8
  %inc2.i = add i64 %27, 1
  store i64 %inc2.i, ptr %26, align 8
  %arrayidx3.i = getelementptr inbounds i8, ptr %25, i64 %27
  store i8 %conv1.i, ptr %arrayidx3.i, align 1
  br label %if.end

if.end:                                           ; preds = %_ZN9struct_pb8internal16serialize_varintEPcRmmm.exit, %entry
  %28 = load ptr, ptr %unknown_fields.addr, align 8
  %29 = load ptr, ptr %data.addr, align 8
  %30 = load i64, ptr %size.addr, align 8
  call void @_ZNK9struct_pb13UnknownFields12serialize_toEPcRmm(ptr noundef nonnull align 8 dereferenceable(24) %28, ptr noundef %29, ptr noundef nonnull align 8 dereferenceable(8) %pos, i64 noundef %30)
  ret void
}