; Function Attrs: mustprogress nofree norecurse nosync nounwind memory(readwrite, inaccessiblemem: none) uwtable
define dso_local void @_ZN9struct_pb8internal12serialize_toIN22protobuf_test_messages6proto314ForeignMessageEEEvPcmRKT_RKNS_13UnknownFieldsE(ptr nocapture noundef writeonly %data, i64 noundef %size, ptr nocapture noundef nonnull readonly align 4 dereferenceable(4) %t, ptr nocapture noundef nonnull readonly align 8 dereferenceable(24) %unknown_fields) local_unnamed_addr #6 {
entry:
  %0 = load i32, ptr %t, align 4
  %cmp.not = icmp eq i32 %0, 0
  br i1 %cmp.not, label %if.end, label %_ZN9struct_pb8internal16serialize_varintEPcRmmm.exit17

_ZN9struct_pb8internal16serialize_varintEPcRmmm.exit17: ; preds = %entry
  store i8 8, ptr %data, align 1
  %1 = load i32, ptr %t, align 4
  %conv = sext i32 %1 to i64
  %cmp.i20 = icmp ugt i32 %1, 127
  br i1 %cmp.i20, label %while.body.i, label %_ZN9struct_pb8internal16serialize_varintEPcRmmm.exit

while.body.i:                                     ; preds = %_ZN9struct_pb8internal16serialize_varintEPcRmmm.exit17, %while.body.i
  %v.addr.i.022 = phi i64 [ %shr.i, %while.body.i ], [ %conv, %_ZN9struct_pb8internal16serialize_varintEPcRmmm.exit17 ]
  %pos.021 = phi i64 [ %inc.i, %while.body.i ], [ 1, %_ZN9struct_pb8internal16serialize_varintEPcRmmm.exit17 ]
  %2 = trunc i64 %v.addr.i.022 to i8
  %conv.i = or i8 %2, -128
  %inc.i = add nuw nsw i64 %pos.021, 1
  %arrayidx.i = getelementptr inbounds i8, ptr %data, i64 %pos.021
  store i8 %conv.i, ptr %arrayidx.i, align 1
  %shr.i = lshr i64 %v.addr.i.022, 7
  %cmp.i = icmp ugt i64 %v.addr.i.022, 16383
  br i1 %cmp.i, label %while.body.i, label %_ZN9struct_pb8internal16serialize_varintEPcRmmm.exit, !llvm.loop !7

_ZN9struct_pb8internal16serialize_varintEPcRmmm.exit: ; preds = %while.body.i, %_ZN9struct_pb8internal16serialize_varintEPcRmmm.exit17
  %pos.0.lcssa = phi i64 [ 1, %_ZN9struct_pb8internal16serialize_varintEPcRmmm.exit17 ], [ %inc.i, %while.body.i ]
  %v.addr.i.0.lcssa = phi i64 [ %conv, %_ZN9struct_pb8internal16serialize_varintEPcRmmm.exit17 ], [ %shr.i, %while.body.i ]
  %conv1.i = trunc i64 %v.addr.i.0.lcssa to i8
  %inc2.i = add i64 %pos.0.lcssa, 1
  %arrayidx3.i = getelementptr inbounds i8, ptr %data, i64 %pos.0.lcssa
  store i8 %conv1.i, ptr %arrayidx3.i, align 1
  br label %if.end

if.end:                                           ; preds = %_ZN9struct_pb8internal16serialize_varintEPcRmmm.exit, %entry
  %pos.1 = phi i64 [ 0, %entry ], [ %inc2.i, %_ZN9struct_pb8internal16serialize_varintEPcRmmm.exit ]
  %3 = load ptr, ptr %unknown_fields, align 8
  %_M_finish.i.i = getelementptr inbounds i8, ptr %unknown_fields, i64 8
  %4 = load ptr, ptr %_M_finish.i.i, align 8
  %cmp.i7.i = icmp eq ptr %3, %4
  br i1 %cmp.i7.i, label %_ZNK9struct_pb13UnknownFields12serialize_toEPcRmm.exit, label %for.body.i

for.body.i:                                       ; preds = %if.end, %for.body.i
  %pos.2 = phi i64 [ %add.i, %for.body.i ], [ %pos.1, %if.end ]
  %__begin2.sroa.0.08.i = phi ptr [ %incdec.ptr.i.i, %for.body.i ], [ %3, %if.end ]
  %add.ptr.i = getelementptr inbounds i8, ptr %data, i64 %pos.2
  %5 = load ptr, ptr %__begin2.sroa.0.08.i, align 8
  %len.i = getelementptr inbounds i8, ptr %__begin2.sroa.0.08.i, i64 8
  %6 = load i64, ptr %len.i, align 8
  tail call void @llvm.memcpy.p0.p0.i64(ptr align 1 %add.ptr.i, ptr align 1 %5, i64 %6, i1 false)
  %7 = load i64, ptr %len.i, align 8
  %add.i = add i64 %7, %pos.2
  %incdec.ptr.i.i = getelementptr inbounds i8, ptr %__begin2.sroa.0.08.i, i64 16
  %cmp.i.i = icmp eq ptr %incdec.ptr.i.i, %4
  br i1 %cmp.i.i, label %_ZNK9struct_pb13UnknownFields12serialize_toEPcRmm.exit, label %for.body.i

_ZNK9struct_pb13UnknownFields12serialize_toEPcRmm.exit: ; preds = %for.body.i, %if.end
  ret void
}